target datalayout = "e-m:e-p270:32:32-p271:32:32-p272:64:64-i64:64-i128:128-f80:128-n8:16:32:64-S128"
target triple = "x86_64-pc-linux-gnu"

%struct.Dar_Lib_t_ = type { ptr, i32, i32, [222 x i32], [222 x ptr], ptr, i32, ptr, [222 x ptr], ptr, [222 x ptr], ptr, [222 x ptr], [222 x i32], [222 x ptr], ptr, i32, i32, i32, [222 x i32], [222 x ptr], ptr, i32, [222 x i32], [222 x ptr], ptr, i32, ptr, i32, ptr, ptr, ptr, ptr, ptr }

@s_DarLib = internal global ptr null, align 8

; Function Attrs: nounwind uwtable
define void @Dar_LibReturnCanonicals(ptr noundef %0) #0 {
  %2 = alloca ptr, align 8
  %3 = alloca [222 x i32], align 16
  %4 = alloca i32, align 4
  %5 = alloca i32, align 4
  store ptr %0, ptr %2, align 8
  call void @llvm.memset.p0.i64(ptr align 16 %3, i8 0, i64 888, i1 false)
  store i32 0, ptr %5, align 4
  store i32 0, ptr %4, align 4
  br label %6

6:                                                ; preds = %41, %1
  %7 = load i32, ptr %4, align 4
  %8 = icmp slt i32 %7, 65536
  br i1 %8, label %9, label %44

9:                                                ; preds = %6
  %10 = load ptr, ptr @s_DarLib, align 8
  %11 = getelementptr inbounds %struct.Dar_Lib_t_, ptr %10, i32 0, i32 33
  %12 = load ptr, ptr %11, align 8
  %13 = load i32, ptr %4, align 4
  %14 = sext i32 %13 to i64
  %15 = getelementptr inbounds i8, ptr %12, i64 %14
  %16 = load i8, ptr %15, align 1
  %17 = zext i8 %16 to i64
  %18 = getelementptr inbounds [222 x i32], ptr %3, i64 0, i64 %17
  %19 = load i32, ptr %18, align 4
  %20 = icmp ne i32 %19, 0
  br i1 %20, label %40, label %21

21:                                               ; preds = %9
  %22 = load ptr, ptr @s_DarLib, align 8
  %23 = getelementptr inbounds %struct.Dar_Lib_t_, ptr %22, i32 0, i32 33
  %24 = load ptr, ptr %23, align 8
  %25 = load i32, ptr %4, align 4
  %26 = sext i32 %25 to i64
  %27 = getelementptr inbounds i8, ptr %24, i64 %26
  %28 = load i8, ptr %27, align 1
  %29 = zext i8 %28 to i64
  %30 = getelementptr inbounds [222 x i32], ptr %3, i64 0, i64 %29
  store i32 1, ptr %30, align 4
  %31 = load i32, ptr %4, align 4
  %32 = shl i32 %31, 16
  %33 = load i32, ptr %4, align 4
  %34 = or i32 %32, %33
  %35 = load ptr, ptr %2, align 8
  %36 = load i32, ptr %5, align 4
  %37 = add nsw i32 %36, 1
  store i32 %37, ptr %5, align 4
  %38 = sext i32 %36 to i64
  %39 = getelementptr inbounds i32, ptr %35, i64 %38
  store i32 %34, ptr %39, align 4
  br label %40

40:                                               ; preds = %21, %9
  br label %41

41:                                               ; preds = %40
  %42 = load i32, ptr %4, align 4
  %43 = add nsw i32 %42, 1
  store i32 %43, ptr %4, align 4
  br label %6, !llvm.loop !6

44:                                               ; preds = %6
  ret void
}