; Function Attrs: nofree norecurse nosync nounwind memory(read, argmem: readwrite, inaccessiblemem: none) uwtable
define void @Dar_LibReturnCanonicals(ptr noundef writeonly captures(none) %0) local_unnamed_addr #7 {
  %2 = alloca [222 x i32], align 16
  call void @llvm.memset.p0.i64(ptr noundef nonnull align 16 dereferenceable(888) %2, i8 0, i64 888, i1 false)
  %3 = load ptr, ptr @s_DarLib, align 8
  %4 = getelementptr inbounds nuw i8, ptr %3, i64 16144
  br label %5

5:                                                ; preds = %1, %18
  %indvars.iv = phi i64 [ 0, %1 ], [ %indvars.iv.next, %18 ]
  %.09 = phi i32 [ 0, %1 ], [ %.1, %18 ]
  %6 = load ptr, ptr %4, align 8
  %7 = getelementptr inbounds nuw i8, ptr %6, i64 %indvars.iv
  %8 = load i8, ptr %7, align 1
  %9 = zext i8 %8 to i64
  %10 = getelementptr inbounds nuw [222 x i32], ptr %2, i64 0, i64 %9
  %11 = load i32, ptr %10, align 4
  %.not = icmp eq i32 %11, 0
  br i1 %.not, label %12, label %18

12:                                               ; preds = %5
  store i32 1, ptr %10, align 4
  %13 = add nsw i32 %.09, 1
  %14 = sext i32 %.09 to i64
  %15 = getelementptr inbounds i32, ptr %0, i64 %14
  %16 = trunc i64 %indvars.iv to i32
  %17 = mul i32 %16, 65537
  store i32 %17, ptr %15, align 4
  br label %18

18:                                               ; preds = %5, %12
  %.1 = phi i32 [ %.09, %5 ], [ %13, %12 ]
  %indvars.iv.next = add nuw nsw i64 %indvars.iv, 1
  %exitcond.not = icmp eq i64 %indvars.iv.next, 65536
  br i1 %exitcond.not, label %19, label %5, !llvm.loop !6

19:                                               ; preds = %18
  ret void
}